target datalayout = "e-m:e-p270:32:32-p271:32:32-p272:64:64-i64:64-i128:128-f80:128-n8:16:32:64-S128"
target triple = "x86_64-pc-linux-gnu"

%struct.archive_digest = type { ptr, ptr, ptr, ptr, ptr, ptr, ptr, ptr, ptr, ptr, ptr, ptr, ptr, ptr, ptr, ptr, ptr, ptr }
%struct.archive_write = type { %struct.archive, i32, i64, i64, ptr, i64, ptr, ptr, ptr, ptr, ptr, i32, i32, ptr, ptr, ptr, ptr, ptr, ptr, ptr, ptr, ptr, ptr, ptr, ptr, ptr, ptr }
%struct.archive = type { i32, i32, ptr, i32, ptr, i32, i32, ptr, %struct.archive_string, ptr, i32, i32, ptr, ptr, i64, i64, i64, i8, i64 }
%struct.archive_string = type { ptr, i64, i64 }
%struct.mtree_writer = type { ptr, ptr, ptr, %struct.archive_string, %struct.mtree_chain, %struct.archive_string, %struct.archive_string, i32, i64, %struct.anon, %struct.att_counter_set, i32, i32, i32, i32, i64, ptr, ptr, ptr, ptr, ptr, ptr, i32, i32, i32, i32 }
%struct.mtree_chain = type { ptr, ptr }
%struct.anon = type { i32, i32, i32, i64, i64, i32, i64, i64 }
%struct.att_counter_set = type { ptr, ptr, ptr, ptr }
%struct.mtree_entry = type { %struct.archive_rb_node, ptr, ptr, ptr, ptr, %struct.archive_string, %struct.archive_string, %struct.archive_string, %struct.archive_string, %struct.archive_string, %struct.archive_string, %struct.archive_string, i32, i32, i32, i64, i64, i64, i64, i64, i64, i64, i64, i64, i64, i64, i64 }
%struct.archive_rb_node = type { [2 x ptr], i64 }
%struct.reg_info = type { i32, i32, %struct.ae_digest }
%struct.ae_digest = type { [16 x i8], [20 x i8], [20 x i8], [32 x i8], [48 x i8], [64 x i8] }

@__archive_digest = external constant %struct.archive_digest, align 8

; Function Attrs: nounwind uwtable
define internal void @sum_final(ptr noundef %0, ptr noundef %1) #0 {
  %3 = alloca ptr, align 8
  %4 = alloca ptr, align 8
  %5 = alloca i64, align 8
  store ptr %0, ptr %3, align 8, !tbaa !23
  store ptr %1, ptr %4, align 8, !tbaa !176
  %6 = load ptr, ptr %3, align 8, !tbaa !23
  %7 = getelementptr inbounds nuw %struct.mtree_writer, ptr %6, i32 0, i32 13
  %8 = load i32, ptr %7, align 8, !tbaa !124
  %9 = and i32 %8, 1
  %10 = icmp ne i32 %9, 0
  br i1 %10, label %11, label %46

11:                                               ; preds = %2
  call void @llvm.lifetime.start.p0(i64 8, ptr %5) #9
  %12 = load ptr, ptr %3, align 8, !tbaa !23
  %13 = getelementptr inbounds nuw %struct.mtree_writer, ptr %12, i32 0, i32 15
  %14 = load i64, ptr %13, align 8, !tbaa !126
  store i64 %14, ptr %5, align 8, !tbaa !69
  br label %15

15:                                               ; preds = %36, %11
  %16 = load i64, ptr %5, align 8, !tbaa !69
  %17 = icmp ne i64 %16, 0
  br i1 %17, label %18, label %39

18:                                               ; preds = %15
  %19 = load ptr, ptr %3, align 8, !tbaa !23
  %20 = getelementptr inbounds nuw %struct.mtree_writer, ptr %19, i32 0, i32 14
  %21 = load i32, ptr %20, align 4, !tbaa !125
  %22 = shl i32 %21, 8
  %23 = load ptr, ptr %3, align 8, !tbaa !23
  %24 = getelementptr inbounds nuw %struct.mtree_writer, ptr %23, i32 0, i32 14
  %25 = load i32, ptr %24, align 4, !tbaa !125
  %26 = lshr i32 %25, 24
  %27 = zext i32 %26 to i64
  %28 = load i64, ptr %5, align 8, !tbaa !69
  %29 = and i64 %28, 255
  %30 = xor i64 %27, %29
  %31 = getelementptr inbounds nuw [256 x i32], ptr @crctab, i64 0, i64 %30
  %32 = load i32, ptr %31, align 4, !tbaa !13
  %33 = xor i32 %22, %32
  %34 = load ptr, ptr %3, align 8, !tbaa !23
  %35 = getelementptr inbounds nuw %struct.mtree_writer, ptr %34, i32 0, i32 14
  store i32 %33, ptr %35, align 4, !tbaa !125
  br label %36

36:                                               ; preds = %18
  %37 = load i64, ptr %5, align 8, !tbaa !69
  %38 = lshr i64 %37, 8
  store i64 %38, ptr %5, align 8, !tbaa !69
  br label %15, !llvm.loop !194

39:                                               ; preds = %15
  %40 = load ptr, ptr %3, align 8, !tbaa !23
  %41 = getelementptr inbounds nuw %struct.mtree_writer, ptr %40, i32 0, i32 14
  %42 = load i32, ptr %41, align 4, !tbaa !125
  %43 = xor i32 %42, -1
  %44 = load ptr, ptr %4, align 8, !tbaa !176
  %45 = getelementptr inbounds nuw %struct.reg_info, ptr %44, i32 0, i32 1
  store i32 %43, ptr %45, align 4, !tbaa !177
  call void @llvm.lifetime.end.p0(i64 8, ptr %5) #9
  br label %46

46:                                               ; preds = %39, %2
  %47 = load ptr, ptr %3, align 8, !tbaa !23
  %48 = getelementptr inbounds nuw %struct.mtree_writer, ptr %47, i32 0, i32 13
  %49 = load i32, ptr %48, align 8, !tbaa !124
  %50 = and i32 %49, 256
  %51 = icmp ne i32 %50, 0
  br i1 %51, label %52, label %61

52:                                               ; preds = %46
  %53 = load ptr, ptr getelementptr inbounds nuw (%struct.archive_digest, ptr @__archive_digest, i32 0, i32 2), align 8, !tbaa !195
  %54 = load ptr, ptr %3, align 8, !tbaa !23
  %55 = getelementptr inbounds nuw %struct.mtree_writer, ptr %54, i32 0, i32 16
  %56 = load ptr, ptr %4, align 8, !tbaa !176
  %57 = getelementptr inbounds nuw %struct.reg_info, ptr %56, i32 0, i32 2
  %58 = getelementptr inbounds nuw %struct.ae_digest, ptr %57, i32 0, i32 0
  %59 = getelementptr inbounds [16 x i8], ptr %58, i64 0, i64 0
  %60 = call i32 %53(ptr noundef %55, ptr noundef %59)
  br label %61

61:                                               ; preds = %52, %46
  %62 = load ptr, ptr %3, align 8, !tbaa !23
  %63 = getelementptr inbounds nuw %struct.mtree_writer, ptr %62, i32 0, i32 13
  %64 = load i32, ptr %63, align 8, !tbaa !124
  %65 = and i32 %64, 8192
  %66 = icmp ne i32 %65, 0
  br i1 %66, label %67, label %76

67:                                               ; preds = %61
  %68 = load ptr, ptr getelementptr inbounds nuw (%struct.archive_digest, ptr @__archive_digest, i32 0, i32 5), align 8, !tbaa !196
  %69 = load ptr, ptr %3, align 8, !tbaa !23
  %70 = getelementptr inbounds nuw %struct.mtree_writer, ptr %69, i32 0, i32 17
  %71 = load ptr, ptr %4, align 8, !tbaa !176
  %72 = getelementptr inbounds nuw %struct.reg_info, ptr %71, i32 0, i32 2
  %73 = getelementptr inbounds nuw %struct.ae_digest, ptr %72, i32 0, i32 1
  %74 = getelementptr inbounds [20 x i8], ptr %73, i64 0, i64 0
  %75 = call i32 %68(ptr noundef %70, ptr noundef %74)
  br label %76

76:                                               ; preds = %67, %61
  %77 = load ptr, ptr %3, align 8, !tbaa !23
  %78 = getelementptr inbounds nuw %struct.mtree_writer, ptr %77, i32 0, i32 13
  %79 = load i32, ptr %78, align 8, !tbaa !124
  %80 = and i32 %79, 16384
  %81 = icmp ne i32 %80, 0
  br i1 %81, label %82, label %91

82:                                               ; preds = %76
  %83 = load ptr, ptr getelementptr inbounds nuw (%struct.archive_digest, ptr @__archive_digest, i32 0, i32 8), align 8, !tbaa !197
  %84 = load ptr, ptr %3, align 8, !tbaa !23
  %85 = getelementptr inbounds nuw %struct.mtree_writer, ptr %84, i32 0, i32 18
  %86 = load ptr, ptr %4, align 8, !tbaa !176
  %87 = getelementptr inbounds nuw %struct.reg_info, ptr %86, i32 0, i32 2
  %88 = getelementptr inbounds nuw %struct.ae_digest, ptr %87, i32 0, i32 2
  %89 = getelementptr inbounds [20 x i8], ptr %88, i64 0, i64 0
  %90 = call i32 %83(ptr noundef %85, ptr noundef %89)
  br label %91

91:                                               ; preds = %82, %76
  %92 = load ptr, ptr %3, align 8, !tbaa !23
  %93 = getelementptr inbounds nuw %struct.mtree_writer, ptr %92, i32 0, i32 13
  %94 = load i32, ptr %93, align 8, !tbaa !124
  %95 = and i32 %94, 8388608
  %96 = icmp ne i32 %95, 0
  br i1 %96, label %97, label %106

97:                                               ; preds = %91
  %98 = load ptr, ptr getelementptr inbounds nuw (%struct.archive_digest, ptr @__archive_digest, i32 0, i32 11), align 8, !tbaa !198
  %99 = load ptr, ptr %3, align 8, !tbaa !23
  %100 = getelementptr inbounds nuw %struct.mtree_writer, ptr %99, i32 0, i32 19
  %101 = load ptr, ptr %4, align 8, !tbaa !176
  %102 = getelementptr inbounds nuw %struct.reg_info, ptr %101, i32 0, i32 2
  %103 = getelementptr inbounds nuw %struct.ae_digest, ptr %102, i32 0, i32 3
  %104 = getelementptr inbounds [32 x i8], ptr %103, i64 0, i64 0
  %105 = call i32 %98(ptr noundef %100, ptr noundef %104)
  br label %106

106:                                              ; preds = %97, %91
  %107 = load ptr, ptr %3, align 8, !tbaa !23
  %108 = getelementptr inbounds nuw %struct.mtree_writer, ptr %107, i32 0, i32 13
  %109 = load i32, ptr %108, align 8, !tbaa !124
  %110 = and i32 %109, 16777216
  %111 = icmp ne i32 %110, 0
  br i1 %111, label %112, label %121

112:                                              ; preds = %106
  %113 = load ptr, ptr getelementptr inbounds nuw (%struct.archive_digest, ptr @__archive_digest, i32 0, i32 14), align 8, !tbaa !199
  %114 = load ptr, ptr %3, align 8, !tbaa !23
  %115 = getelementptr inbounds nuw %struct.mtree_writer, ptr %114, i32 0, i32 20
  %116 = load ptr, ptr %4, align 8, !tbaa !176
  %117 = getelementptr inbounds nuw %struct.reg_info, ptr %116, i32 0, i32 2
  %118 = getelementptr inbounds nuw %struct.ae_digest, ptr %117, i32 0, i32 4
  %119 = getelementptr inbounds [48 x i8], ptr %118, i64 0, i64 0
  %120 = call i32 %113(ptr noundef %115, ptr noundef %119)
  br label %121

121:                                              ; preds = %112, %106
  %122 = load ptr, ptr %3, align 8, !tbaa !23
  %123 = getelementptr inbounds nuw %struct.mtree_writer, ptr %122, i32 0, i32 13
  %124 = load i32, ptr %123, align 8, !tbaa !124
  %125 = and i32 %124, 33554432
  %126 = icmp ne i32 %125, 0
  br i1 %126, label %127, label %136

127:                                              ; preds = %121
  %128 = load ptr, ptr getelementptr inbounds nuw (%struct.archive_digest, ptr @__archive_digest, i32 0, i32 17), align 8, !tbaa !200
  %129 = load ptr, ptr %3, align 8, !tbaa !23
  %130 = getelementptr inbounds nuw %struct.mtree_writer, ptr %129, i32 0, i32 21
  %131 = load ptr, ptr %4, align 8, !tbaa !176
  %132 = getelementptr inbounds nuw %struct.reg_info, ptr %131, i32 0, i32 2
  %133 = getelementptr inbounds nuw %struct.ae_digest, ptr %132, i32 0, i32 5
  %134 = getelementptr inbounds [64 x i8], ptr %133, i64 0, i64 0
  %135 = call i32 %128(ptr noundef %130, ptr noundef %134)
  br label %136

136:                                              ; preds = %127, %121
  %137 = load ptr, ptr %3, align 8, !tbaa !23
  %138 = getelementptr inbounds nuw %struct.mtree_writer, ptr %137, i32 0, i32 13
  %139 = load i32, ptr %138, align 8, !tbaa !124
  %140 = load ptr, ptr %4, align 8, !tbaa !176
  %141 = getelementptr inbounds nuw %struct.reg_info, ptr %140, i32 0, i32 0
  store i32 %139, ptr %141, align 4, !tbaa !107
  ret void
}

; Function Attrs: nounwind uwtable
define internal i32 @archive_write_mtree_finish_entry(ptr noundef %0) #0 {
  %2 = alloca i32, align 4
  %3 = alloca ptr, align 8
  %4 = alloca ptr, align 8
  %5 = alloca ptr, align 8
  %6 = alloca i32, align 4
  store ptr %0, ptr %3, align 8, !tbaa !11
  call void @llvm.lifetime.start.p0(i64 8, ptr %4) #9
  %7 = load ptr, ptr %3, align 8, !tbaa !11
  %8 = getelementptr inbounds nuw %struct.archive_write, ptr %7, i32 0, i32 15
  %9 = load ptr, ptr %8, align 8, !tbaa !44
  store ptr %9, ptr %4, align 8, !tbaa !23
  call void @llvm.lifetime.start.p0(i64 8, ptr %5) #9
  %10 = load ptr, ptr %4, align 8, !tbaa !23
  %11 = getelementptr inbounds nuw %struct.mtree_writer, ptr %10, i32 0, i32 0
  %12 = load ptr, ptr %11, align 8, !tbaa !25
  store ptr %12, ptr %5, align 8, !tbaa !61
  %13 = icmp eq ptr %12, null
  br i1 %13, label %14, label %15

14:                                               ; preds = %1
  store i32 0, ptr %2, align 4
  store i32 1, ptr %6, align 4
  br label %28

15:                                               ; preds = %1
  %16 = load ptr, ptr %4, align 8, !tbaa !23
  %17 = getelementptr inbounds nuw %struct.mtree_writer, ptr %16, i32 0, i32 0
  store ptr null, ptr %17, align 8, !tbaa !25
  %18 = load ptr, ptr %5, align 8, !tbaa !61
  %19 = getelementptr inbounds nuw %struct.mtree_entry, ptr %18, i32 0, i32 4
  %20 = load ptr, ptr %19, align 8, !tbaa !62
  %21 = icmp ne ptr %20, null
  br i1 %21, label %22, label %27

22:                                               ; preds = %15
  %23 = load ptr, ptr %4, align 8, !tbaa !23
  %24 = load ptr, ptr %5, align 8, !tbaa !61
  %25 = getelementptr inbounds nuw %struct.mtree_entry, ptr %24, i32 0, i32 4
  %26 = load ptr, ptr %25, align 8, !tbaa !62
  call void @sum_final(ptr noundef %23, ptr noundef %26)
  br label %27

27:                                               ; preds = %22, %15
  store i32 0, ptr %2, align 4
  store i32 1, ptr %6, align 4
  br label %28

28:                                               ; preds = %27, %14
  call void @llvm.lifetime.end.p0(i64 8, ptr %5) #9
  call void @llvm.lifetime.end.p0(i64 8, ptr %4) #9
  %29 = load i32, ptr %2, align 4
  ret i32 %29
}