; Function Attrs: nounwind uwtable
define internal noundef i32 @archive_write_mtree_finish_entry(ptr noundef readonly captures(none) %0) #0 {
  %2 = getelementptr inbounds nuw i8, ptr %0, i64 248
  %3 = load ptr, ptr %2, align 8, !tbaa !28
  %4 = load ptr, ptr %3, align 8, !tbaa !95
  %5 = icmp eq ptr %4, null
  br i1 %5, label %77, label %6

6:                                                ; preds = %1
  store ptr null, ptr %3, align 8, !tbaa !95
  %7 = getelementptr inbounds nuw i8, ptr %4, i64 48
  %8 = load ptr, ptr %7, align 8, !tbaa !46
  %.not = icmp eq ptr %8, null
  br i1 %.not, label %77, label %9

9:                                                ; preds = %6
  %10 = getelementptr inbounds nuw i8, ptr %3, i64 224
  %11 = load i32, ptr %10, align 8, !tbaa !96
  %12 = and i32 %11, 1
  %.not.i = icmp eq i32 %12, 0
  br i1 %.not.i, label %29, label %13

13:                                               ; preds = %9
  %14 = getelementptr inbounds nuw i8, ptr %3, i64 232
  %15 = load i64, ptr %14, align 8, !tbaa !98
  %.not2936.i = icmp eq i64 %15, 0
  %.phi.trans.insert.i = getelementptr inbounds nuw i8, ptr %3, i64 228
  %.pre.i = load i32, ptr %.phi.trans.insert.i, align 4, !tbaa !97
  br i1 %.not2936.i, label %._crit_edge38.i, label %.lr.ph.i

.lr.ph.i:                                         ; preds = %13, %.lr.ph.i
  %16 = phi i32 [ %24, %.lr.ph.i ], [ %.pre.i, %13 ]
  %.037.i = phi i64 [ %25, %.lr.ph.i ], [ %15, %13 ]
  %17 = shl i32 %16, 8
  %18 = lshr i32 %16, 24
  %19 = zext nneg i32 %18 to i64
  %20 = and i64 %.037.i, 255
  %21 = xor i64 %20, %19
  %22 = getelementptr inbounds nuw [256 x i32], ptr @crctab, i64 0, i64 %21
  %23 = load i32, ptr %22, align 4, !tbaa !128
  %24 = xor i32 %23, %17
  %25 = lshr i64 %.037.i, 8
  %.not29.i = icmp ult i64 %.037.i, 256
  br i1 %.not29.i, label %._crit_edge.i, label %.lr.ph.i, !llvm.loop !136

._crit_edge.i:                                    ; preds = %.lr.ph.i
  store i32 %24, ptr %.phi.trans.insert.i, align 4, !tbaa !97
  br label %._crit_edge38.i

._crit_edge38.i:                                  ; preds = %._crit_edge.i, %13
  %26 = phi i32 [ %24, %._crit_edge.i ], [ %.pre.i, %13 ]
  %27 = xor i32 %26, -1
  %28 = getelementptr inbounds nuw i8, ptr %8, i64 4
  store i32 %27, ptr %28, align 4, !tbaa !137
  br label %29

29:                                               ; preds = %._crit_edge38.i, %9
  %30 = and i32 %11, 256
  %.not30.i = icmp eq i32 %30, 0
  br i1 %.not30.i, label %36, label %31

31:                                               ; preds = %29
  %32 = load ptr, ptr getelementptr inbounds nuw (i8, ptr @__archive_digest, i64 16), align 8, !tbaa !140
  %33 = getelementptr inbounds nuw i8, ptr %3, i64 240
  %34 = getelementptr inbounds nuw i8, ptr %8, i64 8
  %35 = tail call i32 %32(ptr noundef nonnull %33, ptr noundef nonnull %34) #14
  %.pre39.i = load i32, ptr %10, align 8, !tbaa !96
  br label %36

36:                                               ; preds = %31, %29
  %37 = phi i32 [ %.pre39.i, %31 ], [ %11, %29 ]
  %38 = and i32 %37, 8192
  %.not31.i = icmp eq i32 %38, 0
  br i1 %.not31.i, label %44, label %39

39:                                               ; preds = %36
  %40 = load ptr, ptr getelementptr inbounds nuw (i8, ptr @__archive_digest, i64 40), align 8, !tbaa !141
  %41 = getelementptr inbounds nuw i8, ptr %3, i64 248
  %42 = getelementptr inbounds nuw i8, ptr %8, i64 24
  %43 = tail call i32 %40(ptr noundef nonnull %41, ptr noundef nonnull %42) #14
  %.pre40.i = load i32, ptr %10, align 8, !tbaa !96
  br label %44

44:                                               ; preds = %39, %36
  %45 = phi i32 [ %.pre40.i, %39 ], [ %37, %36 ]
  %46 = and i32 %45, 16384
  %.not32.i = icmp eq i32 %46, 0
  br i1 %.not32.i, label %52, label %47

47:                                               ; preds = %44
  %48 = load ptr, ptr getelementptr inbounds nuw (i8, ptr @__archive_digest, i64 64), align 8, !tbaa !142
  %49 = getelementptr inbounds nuw i8, ptr %3, i64 256
  %50 = getelementptr inbounds nuw i8, ptr %8, i64 44
  %51 = tail call i32 %48(ptr noundef nonnull %49, ptr noundef nonnull %50) #14
  %.pre41.i = load i32, ptr %10, align 8, !tbaa !96
  br label %52

52:                                               ; preds = %47, %44
  %53 = phi i32 [ %.pre41.i, %47 ], [ %45, %44 ]
  %54 = and i32 %53, 8388608
  %.not33.i = icmp eq i32 %54, 0
  br i1 %.not33.i, label %60, label %55

55:                                               ; preds = %52
  %56 = load ptr, ptr getelementptr inbounds nuw (i8, ptr @__archive_digest, i64 88), align 8, !tbaa !143
  %57 = getelementptr inbounds nuw i8, ptr %3, i64 264
  %58 = getelementptr inbounds nuw i8, ptr %8, i64 64
  %59 = tail call i32 %56(ptr noundef nonnull %57, ptr noundef nonnull %58) #14
  %.pre42.i = load i32, ptr %10, align 8, !tbaa !96
  br label %60

60:                                               ; preds = %55, %52
  %61 = phi i32 [ %.pre42.i, %55 ], [ %53, %52 ]
  %62 = and i32 %61, 16777216
  %.not34.i = icmp eq i32 %62, 0
  br i1 %.not34.i, label %68, label %63

63:                                               ; preds = %60
  %64 = load ptr, ptr getelementptr inbounds nuw (i8, ptr @__archive_digest, i64 112), align 8, !tbaa !144
  %65 = getelementptr inbounds nuw i8, ptr %3, i64 272
  %66 = getelementptr inbounds nuw i8, ptr %8, i64 96
  %67 = tail call i32 %64(ptr noundef nonnull %65, ptr noundef nonnull %66) #14
  %.pre43.i = load i32, ptr %10, align 8, !tbaa !96
  br label %68

68:                                               ; preds = %63, %60
  %69 = phi i32 [ %.pre43.i, %63 ], [ %61, %60 ]
  %70 = and i32 %69, 33554432
  %.not35.i = icmp eq i32 %70, 0
  br i1 %.not35.i, label %sum_final.exit, label %71

71:                                               ; preds = %68
  %72 = load ptr, ptr getelementptr inbounds nuw (i8, ptr @__archive_digest, i64 136), align 8, !tbaa !145
  %73 = getelementptr inbounds nuw i8, ptr %3, i64 280
  %74 = getelementptr inbounds nuw i8, ptr %8, i64 144
  %75 = tail call i32 %72(ptr noundef nonnull %73, ptr noundef nonnull %74) #14
  %.pre44.i = load i32, ptr %10, align 8, !tbaa !96
  br label %sum_final.exit

sum_final.exit:                                   ; preds = %68, %71
  %76 = phi i32 [ %.pre44.i, %71 ], [ %69, %68 ]
  store i32 %76, ptr %8, align 4, !tbaa !146
  br label %77

77:                                               ; preds = %6, %sum_final.exit, %1
  ret i32 0
}